; Function Attrs: mustprogress uwtable
define noundef nonnull ptr @_ZNK3gmx28ColvarsSimulationsParameters4commEv(ptr noundef nonnull readonly align 8 captures(none) dereferenceable(120) %0) local_unnamed_addr #1 align 2 personality ptr @__gxx_personality_v0 {
  %2 = alloca %"class.gmx::InternalError", align 8
  %3 = alloca %"class.gmx::ExceptionInitializer", align 8
  %4 = alloca %"class.gmx::ExceptionInfo", align 8
  %5 = getelementptr inbounds nuw i8, ptr %0, i64 96
  %6 = load ptr, ptr %5, align 8, !tbaa !80
  %7 = icmp eq ptr %6, null
  br i1 %7, label %8, label %19

8:                                                ; preds = %1
  %9 = tail call ptr @__cxa_allocate_exception(i64 24) #19
  call void @llvm.lifetime.start.p0(i64 56, ptr nonnull %3) #19
  invoke void @_ZN3gmx20ExceptionInitializerC2EPKc(ptr noundef nonnull align 8 dereferenceable(56) %3, ptr noundef nonnull @.str.4)
          to label %10 unwind label %.thread

10:                                               ; preds = %8
  invoke void @_ZN3gmx16GromacsExceptionC2ERKNS_20ExceptionInitializerE(ptr noundef nonnull align 8 dereferenceable(24) %2, ptr noundef nonnull align 8 dereferenceable(56) %3)
          to label %11 unwind label %.thread14

11:                                               ; preds = %10
  store ptr getelementptr inbounds nuw inrange(-16, 32) (i8, ptr @_ZTVN3gmx13InternalErrorE, i64 16), ptr %2, align 8, !tbaa !29
  call void @llvm.lifetime.start.p0(i64 32, ptr nonnull %4) #19
  store ptr getelementptr inbounds nuw inrange(-16, 16) (i8, ptr @_ZTVN3gmx13ExceptionInfoINS_22ExceptionInfoLocation_ENS_13ThrowLocationEEE, i64 16), ptr %4, align 8, !tbaa !29
  %12 = getelementptr inbounds nuw i8, ptr %4, i64 8
  store ptr @__PRETTY_FUNCTION__._ZNK3gmx28ColvarsSimulationsParameters4commEv, ptr %12, align 8, !tbaa !31
  %.sroa.4.0..sroa_idx = getelementptr inbounds nuw i8, ptr %4, i64 16
  store ptr @.str.1, ptr %.sroa.4.0..sroa_idx, align 8, !tbaa !31
  %.sroa.5.0..sroa_idx = getelementptr inbounds nuw i8, ptr %4, i64 24
  store i32 112, ptr %.sroa.5.0..sroa_idx, align 8, !tbaa !33
  invoke void @_ZN3gmxlsINS_13InternalErrorENS_22ExceptionInfoLocation_ENS_13ThrowLocationEEENSt9enable_ifIXsr3stdE12is_base_of_vINS_16GromacsExceptionET_EES6_E4typeES6_RKNS_13ExceptionInfoIT0_T1_EE(ptr dead_on_unwind writable sret(%"class.gmx::InternalError") align 8 %9, ptr noundef nonnull %2, ptr noundef nonnull align 8 dereferenceable(32) %4)
          to label %13 unwind label %16

13:                                               ; preds = %11
  invoke void @__cxa_throw(ptr %9, ptr nonnull @_ZTIN3gmx13InternalErrorE, ptr nonnull @_ZN3gmx16GromacsExceptionD2Ev) #20
          to label %21 unwind label %16

.thread:                                          ; preds = %8
  %14 = landingpad { ptr, i32 }
          cleanup
  br label %.sink.split

.thread14:                                        ; preds = %10
  %15 = landingpad { ptr, i32 }
          cleanup
  call void @_ZN3gmx20ExceptionInitializerD2Ev(ptr noundef nonnull align 8 dereferenceable(56) %3) #19
  br label %.sink.split

16:                                               ; preds = %11, %13
  %.0 = phi i1 [ false, %13 ], [ true, %11 ]
  %17 = landingpad { ptr, i32 }
          cleanup
  call void @_ZN3gmx8internal14IExceptionInfoD2Ev(ptr noundef nonnull align 8 dereferenceable(32) %4) #19
  call void @llvm.lifetime.end.p0(i64 32, ptr nonnull %4) #19
  call void @_ZN3gmx16GromacsExceptionD2Ev(ptr noundef nonnull align 8 dereferenceable(24) %2) #19
  call void @_ZN3gmx20ExceptionInitializerD2Ev(ptr noundef nonnull align 8 dereferenceable(56) %3) #19
  call void @llvm.lifetime.end.p0(i64 56, ptr nonnull %3) #19
  br i1 %.0, label %18, label %20

.sink.split:                                      ; preds = %.thread, %.thread14
  %.pn.pn13.ph = phi { ptr, i32 } [ %15, %.thread14 ], [ %14, %.thread ]
  call void @llvm.lifetime.end.p0(i64 56, ptr nonnull %3) #19
  br label %18

18:                                               ; preds = %.sink.split, %16
  %.pn.pn13 = phi { ptr, i32 } [ %17, %16 ], [ %.pn.pn13.ph, %.sink.split ]
  call void @__cxa_free_exception(ptr %9) #19
  br label %20

19:                                               ; preds = %1
  ret ptr %6

20:                                               ; preds = %16, %18
  %.pn.pn12 = phi { ptr, i32 } [ %17, %16 ], [ %.pn.pn13, %18 ]
  resume { ptr, i32 } %.pn.pn12

21:                                               ; preds = %13
  unreachable
}